target datalayout = "e-m:e-p270:32:32-p271:32:32-p272:64:64-i64:64-i128:128-f80:128-n8:16:32:64-S128"
target triple = "x86_64-pc-linux-gnu"

%struct.ggml_backend_buffer_i = type { ptr, ptr, ptr, ptr, ptr, ptr, ptr, ptr, ptr }
%struct.ggml_backend_buffer = type { %struct.ggml_backend_buffer_i, ptr, ptr, i64, i32 }

@.str = private unnamed_addr constant [123 x i8] c"generated/home/dtcxzyw/WorkSpace/Projects/compilers/llvm-opt-benchmark/bench/llama.cpp/llama.cpp/ggml/src/ggml-backend.cpp\00", align 1
@.str.1 = private unnamed_addr constant [23 x i8] c"GGML_ASSERT(%s) failed\00", align 1
@.str.2 = private unnamed_addr constant [53 x i8] c"base != NULL && \22backend buffer base cannot be NULL\22\00", align 1

; Function Attrs: mustprogress uwtable
define ptr @ggml_backend_buffer_get_base(ptr noundef %0) #0 {
  %2 = alloca ptr, align 8
  %3 = alloca ptr, align 8
  %4 = alloca ptr, align 8
  store ptr %0, ptr %3, align 8, !tbaa !24
  %5 = load ptr, ptr %3, align 8, !tbaa !24
  %6 = getelementptr inbounds nuw %struct.ggml_backend_buffer, ptr %5, i32 0, i32 3
  %7 = load i64, ptr %6, align 8, !tbaa !22
  %8 = icmp eq i64 %7, 0
  br i1 %8, label %9, label %10

9:                                                ; preds = %1
  store ptr null, ptr %2, align 8
  br label %22

10:                                               ; preds = %1
  call void @llvm.lifetime.start.p0(i64 8, ptr %4) #15
  %11 = load ptr, ptr %3, align 8, !tbaa !24
  %12 = getelementptr inbounds nuw %struct.ggml_backend_buffer, ptr %11, i32 0, i32 0
  %13 = getelementptr inbounds nuw %struct.ggml_backend_buffer_i, ptr %12, i32 0, i32 1
  %14 = load ptr, ptr %13, align 8, !tbaa !34
  %15 = load ptr, ptr %3, align 8, !tbaa !24
  %16 = call noundef ptr %14(ptr noundef %15)
  store ptr %16, ptr %4, align 8, !tbaa !15
  %17 = load ptr, ptr %4, align 8, !tbaa !15
  %18 = icmp ne ptr %17, null
  br i1 %18, label %20, label %19

19:                                               ; preds = %10
  call void (ptr, i32, ptr, ...) @ggml_abort(ptr noundef @.str, i32 noundef 124, ptr noundef @.str.1, ptr noundef @.str.2) #18
  unreachable

20:                                               ; preds = %10
  %21 = load ptr, ptr %4, align 8, !tbaa !15
  store ptr %21, ptr %2, align 8
  call void @llvm.lifetime.end.p0(i64 8, ptr %4) #15
  br label %22

22:                                               ; preds = %20, %9
  %23 = load ptr, ptr %2, align 8
  ret ptr %23
}