; Function Attrs: mustprogress uwtable
define noundef ptr @ggml_backend_buffer_get_base(ptr noundef %0) local_unnamed_addr #0 {
  %2 = getelementptr inbounds nuw i8, ptr %0, i64 88
  %3 = load i64, ptr %2, align 8, !tbaa !20
  %4 = icmp eq i64 %3, 0
  br i1 %4, label %10, label %5

5:                                                ; preds = %1
  %6 = getelementptr inbounds nuw i8, ptr %0, i64 8
  %7 = load ptr, ptr %6, align 8, !tbaa !28
  %8 = tail call noundef ptr %7(ptr noundef nonnull %0)
  %.not = icmp eq ptr %8, null
  br i1 %.not, label %9, label %10

9:                                                ; preds = %5
  tail call void (ptr, i32, ptr, ...) @ggml_abort(ptr noundef nonnull @.str, i32 noundef 124, ptr noundef nonnull @.str.1, ptr noundef nonnull @.str.2) #24
  unreachable

10:                                               ; preds = %5, %1
  %.0 = phi ptr [ null, %1 ], [ %8, %5 ]
  ret ptr %.0
}